target datalayout = "e-m:e-p270:32:32-p271:32:32-p272:64:64-i64:64-i128:128-f80:128-n8:16:32:64-S128"
target triple = "x86_64-pc-linux-gnu"

%"class.ncnn::Layer" = type { ptr, i8, i8, i8, i8, i8, i8, i8, i8, i8, i8, i8, i8, i8, i8, i8, i8, i8, i8, i8, i8, i32, ptr, i32, %"class.std::__cxx11::basic_string", %"class.std::__cxx11::basic_string", %"class.std::vector", %"class.std::vector", %"class.std::vector.3", %"class.std::vector.3" }
%"class.std::__cxx11::basic_string" = type { %"struct.std::__cxx11::basic_string<char>::_Alloc_hider", i64, %union.anon }
%"struct.std::__cxx11::basic_string<char>::_Alloc_hider" = type { ptr }
%union.anon = type { i64, [8 x i8] }
%"class.std::vector" = type { %"struct.std::_Vector_base" }
%"struct.std::_Vector_base" = type { %"struct.std::_Vector_base<int, std::allocator<int>>::_Vector_impl" }
%"struct.std::_Vector_base<int, std::allocator<int>>::_Vector_impl" = type { %"struct.std::_Vector_base<int, std::allocator<int>>::_Vector_impl_data" }
%"struct.std::_Vector_base<int, std::allocator<int>>::_Vector_impl_data" = type { ptr, ptr, ptr }
%"class.std::vector.3" = type { %"struct.std::_Vector_base.4" }
%"struct.std::_Vector_base.4" = type { %"struct.std::_Vector_base<ncnn::Mat, std::allocator<ncnn::Mat>>::_Vector_impl" }
%"struct.std::_Vector_base<ncnn::Mat, std::allocator<ncnn::Mat>>::_Vector_impl" = type { %"struct.std::_Vector_base<ncnn::Mat, std::allocator<ncnn::Mat>>::_Vector_impl_data" }
%"struct.std::_Vector_base<ncnn::Mat, std::allocator<ncnn::Mat>>::_Vector_impl_data" = type { ptr, ptr, ptr }
%"class.ncnn::DetectionOutput" = type <{ %"class.ncnn::Layer", i32, float, i32, i32, float, [4 x float], [4 x i8] }>

; Function Attrs: mustprogress uwtable
define hidden noundef i32 @_ZN4ncnn15DetectionOutput10load_paramERKNS_9ParamDictE(ptr noundef nonnull align 8 dereferenceable(244) %0, ptr noundef nonnull align 8 dereferenceable(16) %1) unnamed_addr #0 align 2 {
  %3 = alloca ptr, align 8
  %4 = alloca ptr, align 8
  store ptr %0, ptr %3, align 8
  store ptr %1, ptr %4, align 8
  %5 = load ptr, ptr %3, align 8
  %6 = load ptr, ptr %4, align 8
  %7 = call noundef i32 @_ZNK4ncnn9ParamDict3getEii(ptr noundef nonnull align 8 dereferenceable(16) %6, i32 noundef 0, i32 noundef 0)
  %8 = getelementptr inbounds nuw %"class.ncnn::DetectionOutput", ptr %5, i32 0, i32 1
  store i32 %7, ptr %8, align 8
  %9 = load ptr, ptr %4, align 8
  %10 = call fast noundef nofpclass(nan inf) float @_ZNK4ncnn9ParamDict3getEif(ptr noundef nonnull align 8 dereferenceable(16) %9, i32 noundef 1, float noundef nofpclass(nan inf) 0x3FA99999A0000000)
  %11 = getelementptr inbounds nuw %"class.ncnn::DetectionOutput", ptr %5, i32 0, i32 2
  store float %10, ptr %11, align 4
  %12 = load ptr, ptr %4, align 8
  %13 = call noundef i32 @_ZNK4ncnn9ParamDict3getEii(ptr noundef nonnull align 8 dereferenceable(16) %12, i32 noundef 2, i32 noundef 300)
  %14 = getelementptr inbounds nuw %"class.ncnn::DetectionOutput", ptr %5, i32 0, i32 3
  store i32 %13, ptr %14, align 8
  %15 = load ptr, ptr %4, align 8
  %16 = call noundef i32 @_ZNK4ncnn9ParamDict3getEii(ptr noundef nonnull align 8 dereferenceable(16) %15, i32 noundef 3, i32 noundef 100)
  %17 = getelementptr inbounds nuw %"class.ncnn::DetectionOutput", ptr %5, i32 0, i32 4
  store i32 %16, ptr %17, align 4
  %18 = load ptr, ptr %4, align 8
  %19 = call fast noundef nofpclass(nan inf) float @_ZNK4ncnn9ParamDict3getEif(ptr noundef nonnull align 8 dereferenceable(16) %18, i32 noundef 4, float noundef nofpclass(nan inf) 5.000000e-01)
  %20 = getelementptr inbounds nuw %"class.ncnn::DetectionOutput", ptr %5, i32 0, i32 5
  store float %19, ptr %20, align 8
  %21 = load ptr, ptr %4, align 8
  %22 = call fast noundef nofpclass(nan inf) float @_ZNK4ncnn9ParamDict3getEif(ptr noundef nonnull align 8 dereferenceable(16) %21, i32 noundef 5, float noundef nofpclass(nan inf) 0x3FB99999A0000000)
  %23 = getelementptr inbounds nuw %"class.ncnn::DetectionOutput", ptr %5, i32 0, i32 6
  %24 = getelementptr inbounds [4 x float], ptr %23, i64 0, i64 0
  store float %22, ptr %24, align 4
  %25 = load ptr, ptr %4, align 8
  %26 = call fast noundef nofpclass(nan inf) float @_ZNK4ncnn9ParamDict3getEif(ptr noundef nonnull align 8 dereferenceable(16) %25, i32 noundef 6, float noundef nofpclass(nan inf) 0x3FB99999A0000000)
  %27 = getelementptr inbounds nuw %"class.ncnn::DetectionOutput", ptr %5, i32 0, i32 6
  %28 = getelementptr inbounds [4 x float], ptr %27, i64 0, i64 1
  store float %26, ptr %28, align 4
  %29 = load ptr, ptr %4, align 8
  %30 = call fast noundef nofpclass(nan inf) float @_ZNK4ncnn9ParamDict3getEif(ptr noundef nonnull align 8 dereferenceable(16) %29, i32 noundef 7, float noundef nofpclass(nan inf) 0x3FC99999A0000000)
  %31 = getelementptr inbounds nuw %"class.ncnn::DetectionOutput", ptr %5, i32 0, i32 6
  %32 = getelementptr inbounds [4 x float], ptr %31, i64 0, i64 2
  store float %30, ptr %32, align 4
  %33 = load ptr, ptr %4, align 8
  %34 = call fast noundef nofpclass(nan inf) float @_ZNK4ncnn9ParamDict3getEif(ptr noundef nonnull align 8 dereferenceable(16) %33, i32 noundef 8, float noundef nofpclass(nan inf) 0x3FC99999A0000000)
  %35 = getelementptr inbounds nuw %"class.ncnn::DetectionOutput", ptr %5, i32 0, i32 6
  %36 = getelementptr inbounds [4 x float], ptr %35, i64 0, i64 3
  store float %34, ptr %36, align 4
  ret i32 0
}