; Function Attrs: mustprogress uwtable
define hidden noundef i32 @_ZN4ncnn15DetectionOutput10load_paramERKNS_9ParamDictE(ptr nocapture noundef nonnull writeonly align 8 dereferenceable(244) %0, ptr noundef nonnull align 8 dereferenceable(16) %1) unnamed_addr #0 align 2 {
  %3 = tail call noundef i32 @_ZNK4ncnn9ParamDict3getEii(ptr noundef nonnull align 8 dereferenceable(16) %1, i32 noundef 0, i32 noundef 0)
  %4 = getelementptr inbounds nuw i8, ptr %0, i64 208
  store i32 %3, ptr %4, align 8
  %5 = tail call fast noundef nofpclass(nan inf) float @_ZNK4ncnn9ParamDict3getEif(ptr noundef nonnull align 8 dereferenceable(16) %1, i32 noundef 1, float noundef nofpclass(nan inf) 0x3FA99999A0000000)
  %6 = getelementptr inbounds nuw i8, ptr %0, i64 212
  store float %5, ptr %6, align 4
  %7 = tail call noundef i32 @_ZNK4ncnn9ParamDict3getEii(ptr noundef nonnull align 8 dereferenceable(16) %1, i32 noundef 2, i32 noundef 300)
  %8 = getelementptr inbounds nuw i8, ptr %0, i64 216
  store i32 %7, ptr %8, align 8
  %9 = tail call noundef i32 @_ZNK4ncnn9ParamDict3getEii(ptr noundef nonnull align 8 dereferenceable(16) %1, i32 noundef 3, i32 noundef 100)
  %10 = getelementptr inbounds nuw i8, ptr %0, i64 220
  store i32 %9, ptr %10, align 4
  %11 = tail call fast noundef nofpclass(nan inf) float @_ZNK4ncnn9ParamDict3getEif(ptr noundef nonnull align 8 dereferenceable(16) %1, i32 noundef 4, float noundef nofpclass(nan inf) 5.000000e-01)
  %12 = getelementptr inbounds nuw i8, ptr %0, i64 224
  store float %11, ptr %12, align 8
  %13 = tail call fast noundef nofpclass(nan inf) float @_ZNK4ncnn9ParamDict3getEif(ptr noundef nonnull align 8 dereferenceable(16) %1, i32 noundef 5, float noundef nofpclass(nan inf) 0x3FB99999A0000000)
  %14 = getelementptr inbounds nuw i8, ptr %0, i64 228
  store float %13, ptr %14, align 4
  %15 = tail call fast noundef nofpclass(nan inf) float @_ZNK4ncnn9ParamDict3getEif(ptr noundef nonnull align 8 dereferenceable(16) %1, i32 noundef 6, float noundef nofpclass(nan inf) 0x3FB99999A0000000)
  %16 = getelementptr inbounds i8, ptr %0, i64 232
  store float %15, ptr %16, align 8
  %17 = tail call fast noundef nofpclass(nan inf) float @_ZNK4ncnn9ParamDict3getEif(ptr noundef nonnull align 8 dereferenceable(16) %1, i32 noundef 7, float noundef nofpclass(nan inf) 0x3FC99999A0000000)
  %18 = getelementptr inbounds i8, ptr %0, i64 236
  store float %17, ptr %18, align 4
  %19 = tail call fast noundef nofpclass(nan inf) float @_ZNK4ncnn9ParamDict3getEif(ptr noundef nonnull align 8 dereferenceable(16) %1, i32 noundef 8, float noundef nofpclass(nan inf) 0x3FC99999A0000000)
  %20 = getelementptr inbounds i8, ptr %0, i64 240
  store float %19, ptr %20, align 8
  ret i32 0
}